; Function Attrs: mustprogress uwtable
define void @_ZN3vcg22MovableCoordinateFrameC2Ef(ptr noundef nonnull align 8 dereferenceable(80) %0, float noundef %1) unnamed_addr #1 align 2 personality ptr @__gxx_personality_v0 {
  tail call void @_ZN3vcg15CoordinateFrameC2Ef(ptr noundef nonnull align 8 dereferenceable(51) %0, float noundef %1)
  store ptr getelementptr inbounds ({ [14 x ptr] }, ptr @_ZTVN3vcg22MovableCoordinateFrameE, i64 0, i32 0, i64 2), ptr %0, align 8
  %3 = getelementptr inbounds i8, ptr %0, i64 52
  store <4 x float> <float 0.000000e+00, float 0.000000e+00, float 0.000000e+00, float 1.000000e+00>, ptr %3, align 4
  %4 = getelementptr inbounds i8, ptr %0, i64 68
  store <2 x float> zeroinitializer, ptr %4, align 4
  %5 = getelementptr inbounds i8, ptr %0, i64 76
  store float 0.000000e+00, ptr %5, align 4
  ret void
}